; Function Attrs: nounwind uwtable
define void @Wln_RetMarkChanges(ptr noundef captures(none) %0, ptr noundef readonly %1) local_unnamed_addr #4 {
  %.not = icmp eq ptr %1, null
  br i1 %.not, label %11, label %.preheader

.preheader:                                       ; preds = %2
  %3 = getelementptr i8, ptr %1, i64 4
  %.val1925 = load i32, ptr %3, align 4, !tbaa !26
  %4 = icmp sgt i32 %.val1925, 0
  br i1 %4, label %.lr.ph, label %.critedge

.lr.ph:                                           ; preds = %.preheader
  %5 = getelementptr i8, ptr %1, i64 8
  br label %6

6:                                                ; preds = %.lr.ph, %6
  %indvars.iv = phi i64 [ 0, %.lr.ph ], [ %indvars.iv.next, %6 ]
  %.val = load ptr, ptr %5, align 8, !tbaa !12
  %7 = getelementptr inbounds nuw i32, ptr %.val, i64 %indvars.iv
  %8 = load i32, ptr %7, align 4, !tbaa !13
  tail call void @Wln_RetMarkChanges_rec(ptr noundef %0, i32 noundef %8)
  %indvars.iv.next = add nuw nsw i64 %indvars.iv, 1
  %.val19 = load i32, ptr %3, align 4, !tbaa !26
  %9 = sext i32 %.val19 to i64
  %10 = icmp slt i64 %indvars.iv.next, %9
  br i1 %10, label %6, label %.critedge, !llvm.loop !80

11:                                               ; preds = %2
  %12 = getelementptr inbounds nuw i8, ptr %0, i64 88
  %13 = load ptr, ptr %0, align 8, !tbaa !3
  %14 = getelementptr i8, ptr %13, i64 76
  %.val20 = load i32, ptr %14, align 4, !tbaa !26
  %15 = load i32, ptr %12, align 8, !tbaa !33
  %.not.i.i = icmp slt i32 %15, %.val20
  br i1 %.not.i.i, label %16, label %Vec_IntGrow.exit.i

16:                                               ; preds = %11
  %17 = getelementptr inbounds nuw i8, ptr %0, i64 96
  %18 = load ptr, ptr %17, align 8, !tbaa !12
  %.not9.i.i = icmp eq ptr %18, null
  %19 = sext i32 %.val20 to i64
  %20 = shl nsw i64 %19, 2
  br i1 %.not9.i.i, label %23, label %21

21:                                               ; preds = %16
  %22 = tail call ptr @realloc(ptr noundef nonnull %18, i64 noundef %20) #24
  br label %25

23:                                               ; preds = %16
  %24 = tail call noalias ptr @malloc(i64 noundef %20) #23
  br label %25

25:                                               ; preds = %23, %21
  %26 = phi ptr [ %22, %21 ], [ %24, %23 ]
  store ptr %26, ptr %17, align 8, !tbaa !12
  store i32 %.val20, ptr %12, align 8, !tbaa !33
  br label %Vec_IntGrow.exit.i

Vec_IntGrow.exit.i:                               ; preds = %25, %11
  %27 = icmp sgt i32 %.val20, 0
  br i1 %27, label %.lr.ph.i, label %Vec_IntFill.exit

.lr.ph.i:                                         ; preds = %Vec_IntGrow.exit.i
  %28 = getelementptr inbounds nuw i8, ptr %0, i64 96
  %29 = load ptr, ptr %28, align 8, !tbaa !12
  %wide.trip.count.i = zext nneg i32 %.val20 to i64
  %30 = shl nuw nsw i64 %wide.trip.count.i, 2
  tail call void @llvm.memset.p0.i64(ptr align 4 %29, i8 -1, i64 %30, i1 false), !tbaa !13
  br label %Vec_IntFill.exit

Vec_IntFill.exit:                                 ; preds = %.lr.ph.i, %Vec_IntGrow.exit.i
  %31 = getelementptr inbounds nuw i8, ptr %0, i64 92
  store i32 %.val20, ptr %31, align 4, !tbaa !26
  %32 = load ptr, ptr %0, align 8, !tbaa !3
  %33 = getelementptr i8, ptr %32, i64 28
  %.val2227 = load i32, ptr %33, align 4, !tbaa !26
  %34 = icmp sgt i32 %.val2227, 0
  br i1 %34, label %.lr.ph29, label %.critedge

.lr.ph29:                                         ; preds = %Vec_IntFill.exit
  %35 = getelementptr i8, ptr %32, i64 32
  %.val23 = load ptr, ptr %35, align 8, !tbaa !12
  %36 = getelementptr i8, ptr %0, i64 96
  %.val21 = load ptr, ptr %36, align 8, !tbaa !12
  br label %37

37:                                               ; preds = %.lr.ph29, %37
  %indvars.iv32 = phi i64 [ 0, %.lr.ph29 ], [ %indvars.iv.next33, %37 ]
  %38 = getelementptr inbounds nuw i32, ptr %.val23, i64 %indvars.iv32
  %39 = load i32, ptr %38, align 4, !tbaa !13
  %40 = sext i32 %39 to i64
  %41 = getelementptr inbounds i32, ptr %.val21, i64 %40
  store i32 0, ptr %41, align 4, !tbaa !13
  %indvars.iv.next33 = add nuw nsw i64 %indvars.iv32, 1
  %.val22 = load i32, ptr %33, align 4, !tbaa !26
  %42 = sext i32 %.val22 to i64
  %43 = icmp slt i64 %indvars.iv.next33, %42
  br i1 %43, label %37, label %.critedge, !llvm.loop !81

.critedge:                                        ; preds = %6, %37, %.preheader, %Vec_IntFill.exit
  ret void
}